target datalayout = "e-m:e-p270:32:32-p271:32:32-p272:64:64-i64:64-i128:128-f80:128-n8:16:32:64-S128"
target triple = "x86_64-pc-linux-gnu"

%struct.MovTextContext = type { ptr, ptr, %struct.HighlightBox, %struct.HilightcolorBox, ptr, %struct.TextWrapBox, %struct.MovTextDefault, i8, i16, i16, i32, i32, i32 }
%struct.HighlightBox = type { i16, i16 }
%struct.HilightcolorBox = type { [4 x i8] }
%struct.TextWrapBox = type { i8 }
%struct.MovTextDefault = type { %struct.StyleBox, ptr, i32, i8, i32 }
%struct.StyleBox = type { i16, i16, i8, i8, i8, i8, i32, i8, i8, i16 }

; Function Attrs: alwaysinline nounwind willreturn memory(none) uwtable
define internal zeroext i16 @av_bswap16(i16 noundef zeroext %0) #5 {
  %2 = alloca i16, align 2
  store i16 %0, ptr %2, align 2, !tbaa !90
  %3 = load i16, ptr %2, align 2, !tbaa !90
  %4 = zext i16 %3 to i32
  %5 = ashr i32 %4, 8
  %6 = load i16, ptr %2, align 2, !tbaa !90
  %7 = zext i16 %6 to i32
  %8 = shl i32 %7, 8
  %9 = or i32 %5, %8
  %10 = trunc i32 %9 to i16
  store i16 %10, ptr %2, align 2, !tbaa !90
  %11 = load i16, ptr %2, align 2, !tbaa !90
  ret i16 %11
}

; Function Attrs: alwaysinline nounwind uwtable
define internal i32 @bytestream_get_be16(ptr noundef %0) #4 {
  %2 = alloca ptr, align 8
  store ptr %0, ptr %2, align 8, !tbaa !85
  %3 = load ptr, ptr %2, align 8, !tbaa !85
  %4 = load ptr, ptr %3, align 8, !tbaa !56
  %5 = getelementptr inbounds i8, ptr %4, i64 2
  store ptr %5, ptr %3, align 8, !tbaa !56
  %6 = load ptr, ptr %2, align 8, !tbaa !85
  %7 = load ptr, ptr %6, align 8, !tbaa !56
  %8 = getelementptr inbounds i8, ptr %7, i64 -2
  %9 = load i16, ptr %8, align 1, !tbaa !58
  %10 = call zeroext i16 @av_bswap16(i16 noundef zeroext %9) #9
  %11 = zext i16 %10 to i32
  ret i32 %11
}

; Function Attrs: nounwind uwtable
define internal i32 @decode_hlit(ptr noundef %0, ptr noundef %1, i64 noundef %2) #1 {
  %4 = alloca ptr, align 8
  %5 = alloca ptr, align 8
  %6 = alloca i64, align 8
  store ptr %0, ptr %4, align 8, !tbaa !56
  store ptr %1, ptr %5, align 8, !tbaa !29
  store i64 %2, ptr %6, align 8, !tbaa !61
  %7 = load ptr, ptr %5, align 8, !tbaa !29
  %8 = getelementptr inbounds nuw %struct.MovTextContext, ptr %7, i32 0, i32 7
  %9 = load i8, ptr %8, align 8, !tbaa !60
  %10 = zext i8 %9 to i32
  %11 = or i32 %10, 2
  %12 = trunc i32 %11 to i8
  store i8 %12, ptr %8, align 8, !tbaa !60
  %13 = call i32 @bytestream_get_be16(ptr noundef %4)
  %14 = trunc i32 %13 to i16
  %15 = load ptr, ptr %5, align 8, !tbaa !29
  %16 = getelementptr inbounds nuw %struct.MovTextContext, ptr %15, i32 0, i32 2
  %17 = getelementptr inbounds nuw %struct.HighlightBox, ptr %16, i32 0, i32 0
  store i16 %14, ptr %17, align 8, !tbaa !98
  %18 = call i32 @bytestream_get_be16(ptr noundef %4)
  %19 = trunc i32 %18 to i16
  %20 = load ptr, ptr %5, align 8, !tbaa !29
  %21 = getelementptr inbounds nuw %struct.MovTextContext, ptr %20, i32 0, i32 2
  %22 = getelementptr inbounds nuw %struct.HighlightBox, ptr %21, i32 0, i32 1
  store i16 %19, ptr %22, align 2, !tbaa !99
  ret i32 0
}