; Function Attrs: mustprogress nofree norecurse nosync nounwind willreturn memory(argmem: readwrite) uwtable
define internal noundef i32 @decode_hlit(ptr noundef readonly captures(none) %0, ptr noundef captures(none) initializes((16, 20)) %1, i64 %2) #6 {
  %4 = getelementptr inbounds nuw i8, ptr %1, i64 80
  %5 = load i8, ptr %4, align 8, !tbaa !62
  %6 = or i8 %5, 2
  store i8 %6, ptr %4, align 8, !tbaa !62
  %7 = getelementptr inbounds nuw i8, ptr %0, i64 2
  %8 = load i16, ptr %0, align 1, !tbaa !36
  %9 = tail call i16 @llvm.bswap.i16(i16 %8)
  %10 = getelementptr inbounds nuw i8, ptr %1, i64 16
  store i16 %9, ptr %10, align 8, !tbaa !82
  %11 = load i16, ptr %7, align 1, !tbaa !36
  %12 = tail call i16 @llvm.bswap.i16(i16 %11)
  %13 = getelementptr inbounds nuw i8, ptr %1, i64 18
  store i16 %12, ptr %13, align 2, !tbaa !83
  ret i32 0
}